target datalayout = "e-m:e-p270:32:32-p271:32:32-p272:64:64-i64:64-i128:128-f80:128-n8:16:32:64-S128"
target triple = "x86_64-unknown-linux-gnu"

%"class.google::LogMessage" = type { ptr, ptr, %"struct.google::LogMessageTime" }
%"struct.google::LogMessageTime" = type { %struct.tm, i64, i32, i64 }
%struct.tm = type { i32, i32, i32, i32, i32, i32, i32, i32, i32, i64, ptr }

@.str = private unnamed_addr constant [145 x i8] c"generated/home/dtcxzyw/WorkSpace/Projects/compilers/llvm-opt-benchmark/bench/proxygen/proxygen/proxygen/lib/http/codec/compress/QPACKEncoder.cpp\00", align 1
@.str.14 = private unnamed_addr constant [32 x i8] c"Failed to decode streamId, err=\00", align 1

; Function Attrs: mustprogress uwtable
define noundef zeroext i8 @_ZN8proxygen12QPACKEncoder15decodeHeaderAckERNS_17HPACKDecodeBufferEhb(ptr noundef nonnull align 8 dereferenceable(624) %this, ptr noundef nonnull align 8 dereferenceable(21) %dbuf, i8 noundef zeroext %prefixLength, i1 noundef zeroext %all) #4 align 2 personality ptr @__gxx_personality_v0 {
entry:
  %this.addr = alloca ptr, align 8
  %dbuf.addr = alloca ptr, align 8
  %prefixLength.addr = alloca i8, align 1
  %all.addr = alloca i8, align 1
  %streamId = alloca i64, align 8
  %err = alloca i8, align 1
  %ref.tmp = alloca %"class.google::LogMessage", align 8
  %exn.slot = alloca ptr, align 8
  %ehselector.slot = alloca i32, align 4
  store ptr %this, ptr %this.addr, align 8
  store ptr %dbuf, ptr %dbuf.addr, align 8
  store i8 %prefixLength, ptr %prefixLength.addr, align 1
  %frombool = zext i1 %all to i8
  store i8 %frombool, ptr %all.addr, align 1
  %this1 = load ptr, ptr %this.addr, align 8
  store i64 0, ptr %streamId, align 8
  %0 = load ptr, ptr %dbuf.addr, align 8
  %1 = load i8, ptr %prefixLength.addr, align 1
  %call = call noundef zeroext i8 @_ZN8proxygen17HPACKDecodeBuffer13decodeIntegerEhRm(ptr noundef nonnull align 8 dereferenceable(21) %0, i8 noundef zeroext %1, ptr noundef nonnull align 8 dereferenceable(8) %streamId)
  store i8 %call, ptr %err, align 1
  %2 = load i8, ptr %err, align 1
  %cmp = icmp eq i8 %2, 0
  br i1 %cmp, label %if.then, label %if.else

if.then:                                          ; preds = %entry
  %3 = load i64, ptr %streamId, align 8
  %4 = load i8, ptr %all.addr, align 1
  %tobool = trunc i8 %4 to i1
  %call2 = call noundef zeroext i8 @_ZN8proxygen12QPACKEncoder11onHeaderAckEmb(ptr noundef nonnull align 8 dereferenceable(624) %this1, i64 noundef %3, i1 noundef zeroext %tobool)
  store i8 %call2, ptr %err, align 1
  br label %if.end10

if.else:                                          ; preds = %entry
  %5 = load i8, ptr %err, align 1
  %cmp3 = icmp ne i8 %5, 7
  br i1 %cmp3, label %if.then4, label %if.end

if.then4:                                         ; preds = %if.else
  call void @_ZN6google10LogMessageC1EPKcii(ptr noundef nonnull align 8 dereferenceable(96) %ref.tmp, ptr noundef @.str, i32 noundef 410, i32 noundef 2)
  %call5 = invoke noundef nonnull align 8 dereferenceable(8) ptr @_ZN6google10LogMessage6streamEv(ptr noundef nonnull align 8 dereferenceable(96) %ref.tmp)
          to label %invoke.cont unwind label %lpad

invoke.cont:                                      ; preds = %if.then4
  %call7 = invoke noundef nonnull align 8 dereferenceable(8) ptr @_ZStlsISt11char_traitsIcEERSt13basic_ostreamIcT_ES5_PKc(ptr noundef nonnull align 8 dereferenceable(8) %call5, ptr noundef @.str.14)
          to label %invoke.cont6 unwind label %lpad

invoke.cont6:                                     ; preds = %invoke.cont
  %6 = load i8, ptr %err, align 1
  %call9 = invoke noundef nonnull align 8 dereferenceable(8) ptr @_ZN8proxygen5HPACKlsERSoNS0_11DecodeErrorE(ptr noundef nonnull align 8 dereferenceable(8) %call7, i8 noundef zeroext %6)
          to label %invoke.cont8 unwind label %lpad

invoke.cont8:                                     ; preds = %invoke.cont6
  call void @_ZN6google10LogMessageD1Ev(ptr noundef nonnull align 8 dereferenceable(96) %ref.tmp) #3
  br label %if.end

lpad:                                             ; preds = %invoke.cont6, %invoke.cont, %if.then4
  %7 = landingpad { ptr, i32 }
          cleanup
  %8 = extractvalue { ptr, i32 } %7, 0
  store ptr %8, ptr %exn.slot, align 8
  %9 = extractvalue { ptr, i32 } %7, 1
  store i32 %9, ptr %ehselector.slot, align 4
  call void @_ZN6google10LogMessageD1Ev(ptr noundef nonnull align 8 dereferenceable(96) %ref.tmp) #3
  br label %eh.resume

if.end:                                           ; preds = %invoke.cont8, %if.else
  br label %if.end10

if.end10:                                         ; preds = %if.end, %if.then
  %10 = load i8, ptr %err, align 1
  ret i8 %10

eh.resume:                                        ; preds = %lpad
  %exn = load ptr, ptr %exn.slot, align 8
  %sel = load i32, ptr %ehselector.slot, align 4
  %lpad.val = insertvalue { ptr, i32 } poison, ptr %exn, 0
  %lpad.val11 = insertvalue { ptr, i32 } %lpad.val, i32 %sel, 1
  resume { ptr, i32 } %lpad.val11
}