; Function Attrs: mustprogress uwtable
define noundef zeroext i8 @_ZN8proxygen12QPACKEncoder15decodeHeaderAckERNS_17HPACKDecodeBufferEhb(ptr noundef nonnull align 8 dereferenceable(624) %this, ptr noundef nonnull align 8 dereferenceable(21) %dbuf, i8 noundef zeroext %prefixLength, i1 noundef zeroext %all) local_unnamed_addr #3 align 2 personality ptr @__gxx_personality_v0 {
entry:
  %streamId = alloca i64, align 8
  %ref.tmp = alloca %"class.google::LogMessage", align 8
  store i64 0, ptr %streamId, align 8
  %call = call noundef zeroext i8 @_ZN8proxygen17HPACKDecodeBuffer13decodeIntegerEhRm(ptr noundef nonnull align 8 dereferenceable(21) %dbuf, i8 noundef zeroext %prefixLength, ptr noundef nonnull align 8 dereferenceable(8) %streamId)
  switch i8 %call, label %if.then4 [
    i8 0, label %if.then
    i8 7, label %if.end10
  ]

if.then:                                          ; preds = %entry
  %0 = load i64, ptr %streamId, align 8
  %call2 = call noundef zeroext i8 @_ZN8proxygen12QPACKEncoder11onHeaderAckEmb(ptr noundef nonnull align 8 dereferenceable(624) %this, i64 noundef %0, i1 noundef zeroext %all), !range !38
  br label %if.end10

if.then4:                                         ; preds = %entry
  call void @_ZN6google10LogMessageC1EPKcii(ptr noundef nonnull align 8 dereferenceable(96) %ref.tmp, ptr noundef nonnull @.str, i32 noundef 410, i32 noundef 2)
  %call5 = invoke noundef nonnull align 8 dereferenceable(8) ptr @_ZN6google10LogMessage6streamEv(ptr noundef nonnull align 8 dereferenceable(96) %ref.tmp)
          to label %invoke.cont unwind label %lpad

invoke.cont:                                      ; preds = %if.then4
  %call7 = invoke noundef nonnull align 8 dereferenceable(8) ptr @_ZStlsISt11char_traitsIcEERSt13basic_ostreamIcT_ES5_PKc(ptr noundef nonnull align 8 dereferenceable(8) %call5, ptr noundef nonnull @.str.14)
          to label %invoke.cont6 unwind label %lpad

invoke.cont6:                                     ; preds = %invoke.cont
  %call9 = invoke noundef nonnull align 8 dereferenceable(8) ptr @_ZN8proxygen5HPACKlsERSoNS0_11DecodeErrorE(ptr noundef nonnull align 8 dereferenceable(8) %call7, i8 noundef zeroext %call)
          to label %invoke.cont8 unwind label %lpad

invoke.cont8:                                     ; preds = %invoke.cont6
  call void @_ZN6google10LogMessageD1Ev(ptr noundef nonnull align 8 dereferenceable(96) %ref.tmp) #24
  br label %if.end10

lpad:                                             ; preds = %invoke.cont6, %invoke.cont, %if.then4
  %1 = landingpad { ptr, i32 }
          cleanup
  call void @_ZN6google10LogMessageD1Ev(ptr noundef nonnull align 8 dereferenceable(96) %ref.tmp) #24
  resume { ptr, i32 } %1

if.end10:                                         ; preds = %entry, %invoke.cont8, %if.then
  %err.0 = phi i8 [ %call2, %if.then ], [ %call, %invoke.cont8 ], [ %call, %entry ]
  ret i8 %err.0
}